; Function Attrs: nounwind uwtable
define internal fastcc void @Vec_IntAppend(ptr noundef captures(none) %0, ptr noundef readonly captures(none) %1) unnamed_addr #2 {
  %3 = getelementptr i8, ptr %1, i64 4
  %.val67 = load i32, ptr %3, align 4
  %4 = icmp sgt i32 %.val67, 0
  br i1 %4, label %.lr.ph, label %.critedge

.lr.ph:                                           ; preds = %2
  %5 = getelementptr i8, ptr %1, i64 8
  %6 = getelementptr inbounds nuw i8, ptr %0, i64 4
  %.phi.trans.insert.i = getelementptr inbounds nuw i8, ptr %0, i64 8
  br label %7

7:                                                ; preds = %.lr.ph, %Vec_IntPush.exit
  %indvars.iv = phi i64 [ 0, %.lr.ph ], [ %indvars.iv.next, %Vec_IntPush.exit ]
  %.val = load ptr, ptr %5, align 8
  %8 = getelementptr inbounds nuw i32, ptr %.val, i64 %indvars.iv
  %9 = load i32, ptr %8, align 4
  %10 = load i32, ptr %6, align 4
  %11 = load i32, ptr %0, align 8
  %12 = icmp eq i32 %10, %11
  br i1 %12, label %13, label %.Vec_IntGrow.exit10_crit_edge.i

.Vec_IntGrow.exit10_crit_edge.i:                  ; preds = %7
  %.pre.i = load ptr, ptr %.phi.trans.insert.i, align 8
  br label %Vec_IntPush.exit

13:                                               ; preds = %7
  %14 = icmp slt i32 %10, 16
  br i1 %14, label %15, label %22

15:                                               ; preds = %13
  %16 = load ptr, ptr %.phi.trans.insert.i, align 8
  %.not9.i.i = icmp eq ptr %16, null
  br i1 %.not9.i.i, label %19, label %17

17:                                               ; preds = %15
  %18 = tail call dereferenceable_or_null(64) ptr @realloc(ptr noundef nonnull %16, i64 noundef 64) #39
  br label %Vec_IntGrow.exit.i

19:                                               ; preds = %15
  %20 = tail call noalias dereferenceable_or_null(64) ptr @malloc(i64 noundef 64) #40
  br label %Vec_IntGrow.exit.i

Vec_IntGrow.exit.i:                               ; preds = %19, %17
  %21 = phi ptr [ %18, %17 ], [ %20, %19 ]
  store ptr %21, ptr %.phi.trans.insert.i, align 8
  store i32 16, ptr %0, align 8
  br label %Vec_IntPush.exit

22:                                               ; preds = %13
  %23 = shl nuw nsw i32 %10, 1
  %24 = load ptr, ptr %.phi.trans.insert.i, align 8
  %.not9.i9.i = icmp eq ptr %24, null
  %25 = zext nneg i32 %23 to i64
  %26 = shl nuw nsw i64 %25, 2
  br i1 %.not9.i9.i, label %29, label %27

27:                                               ; preds = %22
  %28 = tail call ptr @realloc(ptr noundef nonnull %24, i64 noundef %26) #39
  br label %31

29:                                               ; preds = %22
  %30 = tail call noalias ptr @malloc(i64 noundef %26) #40
  br label %31

31:                                               ; preds = %29, %27
  %32 = phi ptr [ %28, %27 ], [ %30, %29 ]
  store ptr %32, ptr %.phi.trans.insert.i, align 8
  store i32 %23, ptr %0, align 8
  br label %Vec_IntPush.exit

Vec_IntPush.exit:                                 ; preds = %.Vec_IntGrow.exit10_crit_edge.i, %Vec_IntGrow.exit.i, %31
  %33 = phi ptr [ %.pre.i, %.Vec_IntGrow.exit10_crit_edge.i ], [ %32, %31 ], [ %21, %Vec_IntGrow.exit.i ]
  %34 = load i32, ptr %6, align 4
  %35 = add nsw i32 %34, 1
  store i32 %35, ptr %6, align 4
  %36 = sext i32 %34 to i64
  %37 = getelementptr inbounds i32, ptr %33, i64 %36
  store i32 %9, ptr %37, align 4
  %indvars.iv.next = add nuw nsw i64 %indvars.iv, 1
  %.val6 = load i32, ptr %3, align 4
  %38 = sext i32 %.val6 to i64
  %39 = icmp slt i64 %indvars.iv.next, %38
  br i1 %39, label %7, label %.critedge, !llvm.loop !43

.critedge:                                        ; preds = %Vec_IntPush.exit, %2
  ret void
}